; Function Attrs: mustprogress nofree norecurse nosync nounwind willreturn memory(read, inaccessiblemem: none) uwtable
define hidden range(i64 0, 1531) i64 @SSL_get_key_block_len(ptr noundef readonly captures(none) %0) local_unnamed_addr #3 {
  %2 = getelementptr inbounds nuw i8, ptr %0, i64 80
  %3 = load ptr, ptr %2, align 8, !tbaa !6
  %4 = getelementptr inbounds nuw i8, ptr %3, i64 505
  %5 = load i8, ptr %4, align 1, !tbaa !35
  %6 = zext i8 %5 to i64
  %7 = getelementptr inbounds nuw i8, ptr %3, i64 506
  %8 = load i8, ptr %7, align 2, !tbaa !49
  %9 = zext i8 %8 to i64
  %10 = add nuw nsw i64 %9, %6
  %11 = getelementptr inbounds nuw i8, ptr %3, i64 507
  %12 = load i8, ptr %11, align 1, !tbaa !50
  %13 = zext i8 %12 to i64
  %14 = add nuw nsw i64 %10, %13
  %15 = shl nuw nsw i64 %14, 1
  ret i64 %15
}